Certificate:
    Data:
        Version: 3 (0x2)
        Serial Number:
            b8:40:ab:f3:69:d8:da:ff
    Signature Algorithm: sha256WithRSAEncryption
        Issuer: C=CZ, ST=Praha, L=Praha, O=CITES
        Validity
            Not Before: Jun  2 19:37:41 2020 GMT
            Not After : Feb 18 19:37:41 2040 GMT
        Subject: C=CZ, ST=Praha, O=CITES, CN=*/emailAddress=info@cites.cz
        Subject Public Key Info:
            Public Key Algorithm: rsaEncryption
                Public-Key: (2048 bit)
                Modulus:
                    00:c4:66:a7:80:f4:8f:6f:d7:47:e0:2e:8a:ac:7f:
                    8f:b8:fc:34:51:9e:43:8e:d4:a1:fc:f8:4f:eb:b7:
                    d7:c5:30:95:61:41:19:f9:33:d1:07:23:37:e7:13:
                    4e:96:29:9b:14:9f:4e:2e:af:c9:b9:ab:f9:b8:39:
                    55:95:5b:d5:91:05:d8:c3:4e:ce:c5:b8:b3:9e:44:
                    e3:ef:e2:b9:63:21:e4:38:ea:d7:d3:3c:c7:95:ea:
                    11:40:42:fb:0b:92:52:73:43:9a:24:29:c3:f5:ac:
                    8c:ff:a9:ac:50:c2:ce:ad:39:9d:ee:d4:18:17:4d:
                    20:87:0a:12:dc:79:68:3f:b8:fb:f4:af:f5:3d:d6:
                    4d:4c:64:10:98:c5:1c:98:f0:e5:ff:49:22:ef:8b:
                    24:57:f8:7a:f3:c9:b9:fa:37:c2:3c:d8:99:f2:07:
                    1b:7b:06:14:f1:fe:f2:ba:6e:19:e8:fd:d4:24:10:
                    aa:4c:5c:92:68:1d:ab:b4:fb:26:28:ae:ae:ea:25:
                    58:ec:d3:b0:71:a4:e6:74:c6:5b:26:f0:cc:d6:43:
                    c7:fb:78:1f:df:fc:2f:40:f9:9c:67:1d:79:aa:35:
                    a7:2c:35:ed:5b:89:2a:39:e9:5a:df:33:bc:61:d0:
                    8f:b8:2b:b5:90:6a:96:04:a4:d5:99:f2:8e:c4:60:
                    d1:99
                Exponent: 65537 (0x10001)
        X509v3 extensions:
            X509v3 Basic Constraints: 
                CA:FALSE
            Netscape Cert Type: 
                SSL Client, S/MIME, Object Signing
            Netscape Comment: 
                OpenSSL Generated Certificate
            X509v3 Subject Key Identifier: 
                2E:91:49:CA:F7:AD:0D:61:B3:2D:14:77:A6:D5:F3:4C:06:8A:FF:C3
            X509v3 Authority Key Identifier: 
                keyid:D6:F6:66:A3:6E:35:20:31:C0:17:9A:33:93:0B:53:64:0F:63:4A:26

    Signature Algorithm: sha256WithRSAEncryption
         3a:41:5d:ed:55:70:c3:a6:38:05:72:8d:a3:67:6f:37:6d:d9:
         f7:32:3b:06:d3:fe:3c:08:e3:89:6c:27:b5:5e:a4:60:09:6d:
         ab:a1:89:74:6a:54:0c:c8:31:59:b9:99:24:d6:c3:da:e0:d8:
         69:63:d4:e9:d4:45:cf:11:db:d0:f4:d6:c8:c6:b8:04:9e:38:
         50:20:e4:df:65:5e:b5:e3:0b:c3:ee:c0:b6:72:1d:7b:75:fb:
         27:c6:94:aa:74:c9:21:cd:e6:4c:6c:cc:80:64:11:bd:5d:1e:
         f6:9e:52:43:13:56:b4:87:83:8e:ee:5d:6b:6c:7b:ff:9f:b0:
         87:34:2d:65:7c:1f:71:d9:62:75:f6:82:c9:fd:21:b5:4a:fe:
         bb:df:c9:73:d1:ae:41:02:61:9d:19:13:09:f5:b3:ac:a5:3f:
         19:04:60:a6:1a:ad:91:94:e8:d7:5a:e4:5c:f5:be:e2:94:ba:
         91:4e:a4:fb:73:ff:bf:3e:1e:c6:3c:10:5b:35:b2:b1:ef:eb:
         5a:b3:76:c6:3f:b8:66:0f:2c:ff:a0:1b:c2:9f:4c:cf:3e:c9:
         90:8a:3e:47:5c:d4:de:c3:17:14:29:20:2c:bc:81:01:2c:3d:
         c8:eb:3c:e3:b7:3c:c7:f9:1a:2a:4b:a7:f9:dd:9a:fc:40:34:
         93:32:05:5e
-----BEGIN CERTIFICATE-----
MIIDpzCCAo+gAwIBAgIJALhAq/Np2Nr/MA0GCSqGSIb3DQEBCwUAMD0xCzAJBgNV
BAYTAkNaMQ4wDAYDVQQIDAVQcmFoYTEOMAwGA1UEBwwFUHJhaGExDjAMBgNVBAoM
BUNJVEVTMB4XDTIwMDYwMjE5Mzc0MVoXDTQwMDIxODE5Mzc0MVowVzELMAkGA1UE
BhMCQ1oxDjAMBgNVBAgMBVByYWhhMQ4wDAYDVQQKDAVDSVRFUzEKMAgGA1UEAwwB
KjEcMBoGCSqGSIb3DQEJARYNaW5mb0BjaXRlcy5jejCCASIwDQYJKoZIhvcNAQEB
BQADggEPADCCAQoCggEBAMRmp4D0j2/XR+Auiqx/j7j8NFGeQ47Uofz4T+u318Uw
lWFBGfkz0QcjN+cTTpYpmxSfTi6vybmr+bg5VZVb1ZEF2MNOzsW4s55E4+/iuWMh
5Djq19M8x5XqEUBC+wuSUnNDmiQpw/WsjP+prFDCzq05ne7UGBdNIIcKEtx5aD+4
+/Sv9T3WTUxkEJjFHJjw5f9JIu+LJFf4evPJufo3wjzYmfIHG3sGFPH+8rpuGej9
1CQQqkxckmgdq7T7JiiuruolWOzTsHGk5nTGWybwzNZDx/t4H9/8L0D5nGcdeao1
pyw17VuJKjnpWt8zvGHQj7grtZBqlgSk1ZnyjsRg0ZkCAwEAAaOBjzCBjDAJBgNV
HRMEAjAAMBEGCWCGSAGG+EIBAQQEAwIEsDAsBglghkgBhvhCAQ0EHxYdT3BlblNT
TCBHZW5lcmF0ZWQgQ2VydGlmaWNhdGUwHQYDVR0OBBYEFC6RScr3rQ1hsy0Ud6bV
80wGiv/DMB8GA1UdIwQYMBaAFNb2ZqNuNSAxwBeaM5MLU2QPY0omMA0GCSqGSIb3
DQEBCwUAA4IBAQA6QV3tVXDDpjgFco2jZ283bdn3MjsG0/48COOJbCe1XqRgCW2r
oYl0alQMyDFZuZkk1sPa4NhpY9Tp1EXPEdvQ9NbIxrgEnjhQIOTfZV614wvD7sC2
ch17dfsnxpSqdMkhzeZMbMyAZBG9XR72nlJDE1a0h4OO7l1rbHv/n7CHNC1lfB9x
2WJ19oLJ/SG1Sv6738lz0a5BAmGdGRMJ9bOspT8ZBGCmGq2RlOjXWuRc9b7ilLqR
TqT7c/+/Ph7GPBBbNbKx7+tas3bGP7hmDyz/oBvCn0zPPsmQij5HXNTewxcUKSAs
vIEBLD3I6zzjtzzH+RoqS6f53Zr8QDSTMgVe
-----END CERTIFICATE-----
