Certificate:
    Data:
        Version: 3 (0x2)
        Serial Number:
            b8:40:ab:f3:69:d8:db:02
    Signature Algorithm: sha256WithRSAEncryption
        Issuer: C=CZ, ST=Praha, L=Praha, O=CITES
        Validity
            Not Before: Jun  2 19:57:11 2020 GMT
            Not After : Feb 18 19:57:11 2040 GMT
        Subject: C=CZ, ST=Praha, O=CITES, CN=service.test/emailAddress=service.test@cites.cz
        Subject Public Key Info:
            Public Key Algorithm: rsaEncryption
                Public-Key: (2048 bit)
                Modulus:
                    00:c5:e2:4a:01:df:f8:c2:77:86:6d:9d:d6:bf:ae:
                    da:50:ab:a2:c0:4e:73:52:6c:9c:2c:bf:a6:d5:ad:
                    6c:dc:5f:6e:0b:f8:5a:b3:01:af:a1:dd:b7:fc:af:
                    7b:2e:57:2d:23:7d:1b:53:cc:00:f7:68:14:42:6c:
                    29:b0:31:e8:1b:82:b0:a1:02:ec:d0:0d:d7:72:1d:
                    2e:2c:aa:9a:a9:ae:b0:78:74:97:3a:a6:06:c7:5c:
                    c3:b8:1f:58:9b:e6:f6:63:d2:47:d4:de:e2:29:2b:
                    38:54:fb:cc:3c:64:92:b0:57:f3:56:f0:8d:d3:cb:
                    41:da:21:27:c6:ff:e3:cf:05:95:dd:51:14:54:57:
                    1a:af:bf:21:2c:af:96:95:d4:81:26:34:3e:6e:6d:
                    52:db:17:86:2b:7c:3d:4e:9a:fe:b0:19:52:27:fa:
                    f0:d1:d1:47:81:3c:7a:56:0d:e7:5f:9f:d7:6d:f0:
                    dc:66:e7:b7:c8:98:08:c3:5e:11:09:b4:e6:e6:6f:
                    3f:22:9b:d8:55:4d:8a:62:75:f3:b9:aa:b9:c4:5d:
                    52:76:c6:4d:de:37:c3:b0:3d:50:f2:0a:2b:ec:92:
                    c5:90:5c:0f:3b:ee:e3:b1:d7:97:27:47:ea:2c:7a:
                    b6:fa:a0:74:26:24:3c:7f:ea:5e:b1:7d:45:a1:b6:
                    f1:b9
                Exponent: 65537 (0x10001)
        X509v3 extensions:
            X509v3 Basic Constraints: 
                CA:FALSE
            Netscape Cert Type: 
                SSL Client, S/MIME, Object Signing
            Netscape Comment: 
                OpenSSL Generated Certificate
            X509v3 Subject Key Identifier: 
                F4:21:F4:0C:37:71:98:0A:59:06:2F:59:D7:10:D1:E4:F0:8B:DF:66
            X509v3 Authority Key Identifier: 
                keyid:D6:F6:66:A3:6E:35:20:31:C0:17:9A:33:93:0B:53:64:0F:63:4A:26

    Signature Algorithm: sha256WithRSAEncryption
         3f:97:e7:45:b8:18:59:97:41:66:f1:f5:a6:e8:83:bd:bd:88:
         b2:f4:c6:bc:d8:bc:5a:ce:e5:6c:5a:07:e8:79:dc:31:9e:d1:
         4b:bb:00:3e:7f:c7:b0:96:09:02:61:33:d2:2a:4b:a0:a7:6b:
         81:69:91:c3:5f:60:26:58:b7:94:d5:a3:7a:29:4b:40:be:9f:
         81:3a:dd:43:be:37:ed:d3:90:7e:6a:cd:f2:7b:40:4e:8e:40:
         f6:38:7d:2e:ed:dd:9f:ca:5d:63:05:8c:28:46:af:5c:33:2d:
         f2:21:43:43:65:ec:20:eb:f7:23:8f:af:0c:7d:47:69:70:b5:
         14:9d:04:43:7b:8e:07:a9:89:10:7e:8b:c4:6f:fb:42:b4:93:
         30:2b:c0:61:b6:43:eb:59:c7:58:3a:91:a7:e8:49:a5:27:39:
         e9:da:2a:93:18:9a:f6:03:df:94:71:82:83:4d:65:7b:ad:21:
         69:4e:4f:1b:b3:a3:87:ff:8c:7d:09:93:f7:c0:69:8b:84:38:
         c4:ea:e5:18:74:08:51:a4:d7:15:5a:06:16:a8:98:ab:7e:92:
         e7:43:13:6d:a3:97:33:d3:e8:55:d1:80:25:59:89:54:e8:d8:
         23:f9:a5:e3:bb:85:3e:63:44:3c:d2:13:30:18:fc:57:6a:40:
         e8:85:89:91
-----BEGIN CERTIFICATE-----
MIIDujCCAqKgAwIBAgIJALhAq/Np2NsCMA0GCSqGSIb3DQEBCwUAMD0xCzAJBgNV
BAYTAkNaMQ4wDAYDVQQIDAVQcmFoYTEOMAwGA1UEBwwFUHJhaGExDjAMBgNVBAoM
BUNJVEVTMB4XDTIwMDYwMjE5NTcxMVoXDTQwMDIxODE5NTcxMVowajELMAkGA1UE
BhMCQ1oxDjAMBgNVBAgMBVByYWhhMQ4wDAYDVQQKDAVDSVRFUzEVMBMGA1UEAwwM
c2VydmljZS50ZXN0MSQwIgYJKoZIhvcNAQkBFhVzZXJ2aWNlLnRlc3RAY2l0ZXMu
Y3owggEiMA0GCSqGSIb3DQEBAQUAA4IBDwAwggEKAoIBAQDF4koB3/jCd4Ztnda/
rtpQq6LATnNSbJwsv6bVrWzcX24L+FqzAa+h3bf8r3suVy0jfRtTzAD3aBRCbCmw
MegbgrChAuzQDddyHS4sqpqprrB4dJc6pgbHXMO4H1ib5vZj0kfU3uIpKzhU+8w8
ZJKwV/NW8I3Ty0HaISfG/+PPBZXdURRUVxqvvyEsr5aV1IEmND5ubVLbF4YrfD1O
mv6wGVIn+vDR0UeBPHpWDedfn9dt8Nxm57fImAjDXhEJtObmbz8im9hVTYpidfO5
qrnEXVJ2xk3eN8OwPVDyCivsksWQXA877uOx15cnR+oserb6oHQmJDx/6l6xfUWh
tvG5AgMBAAGjgY8wgYwwCQYDVR0TBAIwADARBglghkgBhvhCAQEEBAMCBLAwLAYJ
YIZIAYb4QgENBB8WHU9wZW5TU0wgR2VuZXJhdGVkIENlcnRpZmljYXRlMB0GA1Ud
DgQWBBT0IfQMN3GYClkGL1nXENHk8IvfZjAfBgNVHSMEGDAWgBTW9majbjUgMcAX
mjOTC1NkD2NKJjANBgkqhkiG9w0BAQsFAAOCAQEAP5fnRbgYWZdBZvH1puiDvb2I
svTGvNi8Ws7lbFoH6HncMZ7RS7sAPn/HsJYJAmEz0ipLoKdrgWmRw19gJli3lNWj
eilLQL6fgTrdQ7437dOQfmrN8ntATo5A9jh9Lu3dn8pdYwWMKEavXDMt8iFDQ2Xs
IOv3I4+vDH1HaXC1FJ0EQ3uOB6mJEH6LxG/7QrSTMCvAYbZD61nHWDqRp+hJpSc5
6doqkxia9gPflHGCg01le60haU5PG7Ojh/+MfQmT98Bpi4Q4xOrlGHQIUaTXFVoG
FqiYq36S50MTbaOXM9PoVdGAJVmJVOjYI/ml47uFPmNEPNITMBj8V2pA6IWJkQ==
-----END CERTIFICATE-----
